; Function Attrs: mustprogress uwtable
define void @_ZN3net19TcpCubicSenderBytes38SetCongestionWindowFromBandwidthAndRttENS_13QuicBandwidthENS_8QuicTime5DeltaE(ptr noundef nonnull align 8 captures(none) dereferenceable(296) initializes((240, 248)) %0, i64 %1, i64 %2, i64 %3) unnamed_addr #0 align 2 {
  %5 = alloca %"class.net::QuicBandwidth", align 8
  store i64 %1, ptr %5, align 8
  %6 = call noundef i64 @_ZNK3net13QuicBandwidth16ToBytesPerPeriodENS_8QuicTime5DeltaE(ptr noundef nonnull align 8 dereferenceable(8) %5, i64 %2, i64 %3)
  %7 = load i8, ptr @FLAGS_quic_no_lower_bw_resumption_limit, align 1, !tbaa !32, !range !33, !noundef !34
  %8 = trunc nuw i8 %7 to i1
  br i1 %8, label %9, label %14

9:                                                ; preds = %4
  %10 = getelementptr inbounds nuw i8, ptr %0, i64 248
  %11 = load i64, ptr %10, align 8, !tbaa !35
  %12 = call i64 @llvm.umin.i64(i64 %6, i64 292000)
  %13 = call i64 @llvm.umax.i64(i64 %11, i64 %12)
  br label %15

14:                                               ; preds = %4
  %.sroa.speculated7 = call i64 @llvm.umin.i64(i64 %6, i64 292000)
  %.sroa.speculated = call i64 @llvm.umax.i64(i64 %.sroa.speculated7, i64 14600)
  br label %15

15:                                               ; preds = %14, %9
  %.sroa.speculated.sink = phi i64 [ %13, %9 ], [ %.sroa.speculated, %14 ]
  %16 = getelementptr inbounds nuw i8, ptr %0, i64 240
  store i64 %.sroa.speculated.sink, ptr %16, align 8, !tbaa !25
  ret void
}